target datalayout = "e-m:e-p270:32:32-p271:32:32-p272:64:64-i64:64-i128:128-f80:128-n8:16:32:64-S128"
target triple = "x86_64-pc-linux-gnu"

@.str.9 = private unnamed_addr constant [36 x i8] c"../openssl/test/sm2_internal_test.c\00", align 1
@fake_rand_bytes = internal global ptr null, align 8
@fake_rand_bytes_offset = internal global i64 0, align 8
@fake_rand_size = internal global i64 0, align 8
@.str.57 = private unnamed_addr constant [16 x i8] c"fake_rand_bytes\00", align 1
@.str.58 = private unnamed_addr constant [15 x i8] c"fake_rand_size\00", align 1
@.str.59 = private unnamed_addr constant [2 x i8] c"0\00", align 1

; Function Attrs: nounwind uwtable
define internal i32 @get_faked_bytes(ptr noundef %0, i64 noundef %1, ptr noundef %2, ptr noundef %3) #0 {
  %5 = alloca i32, align 4
  %6 = alloca ptr, align 8
  %7 = alloca i64, align 8
  %8 = alloca ptr, align 8
  %9 = alloca ptr, align 8
  store ptr %0, ptr %6, align 8, !tbaa !13
  store i64 %1, ptr %7, align 8, !tbaa !21
  store ptr %2, ptr %8, align 8, !tbaa !13
  store ptr %3, ptr %9, align 8, !tbaa !25
  %10 = load ptr, ptr @fake_rand_bytes, align 8, !tbaa !13
  %11 = call i32 @test_ptr(ptr noundef @.str.9, i32 noundef 42, ptr noundef @.str.57, ptr noundef %10)
  %12 = icmp ne i32 %11, 0
  br i1 %12, label %13, label %17

13:                                               ; preds = %4
  %14 = load i64, ptr @fake_rand_size, align 8, !tbaa !21
  %15 = call i32 @test_size_t_gt(ptr noundef @.str.9, i32 noundef 42, ptr noundef @.str.58, ptr noundef @.str.59, i64 noundef %14, i64 noundef 0)
  %16 = icmp ne i32 %15, 0
  br i1 %16, label %18, label %17

17:                                               ; preds = %13, %4
  store i32 0, ptr %5, align 4
  br label %37

18:                                               ; preds = %13
  br label %19

19:                                               ; preds = %28, %18
  %20 = load i64, ptr %7, align 8, !tbaa !21
  %21 = add i64 %20, -1
  store i64 %21, ptr %7, align 8, !tbaa !21
  %22 = icmp ugt i64 %20, 0
  br i1 %22, label %23, label %36

23:                                               ; preds = %19
  %24 = load i64, ptr @fake_rand_bytes_offset, align 8, !tbaa !21
  %25 = load i64, ptr @fake_rand_size, align 8, !tbaa !21
  %26 = icmp uge i64 %24, %25
  br i1 %26, label %27, label %28

27:                                               ; preds = %23
  store i64 0, ptr @fake_rand_bytes_offset, align 8, !tbaa !21
  br label %28

28:                                               ; preds = %27, %23
  %29 = load ptr, ptr @fake_rand_bytes, align 8, !tbaa !13
  %30 = load i64, ptr @fake_rand_bytes_offset, align 8, !tbaa !21
  %31 = add i64 %30, 1
  store i64 %31, ptr @fake_rand_bytes_offset, align 8, !tbaa !21
  %32 = getelementptr inbounds nuw i8, ptr %29, i64 %30
  %33 = load i8, ptr %32, align 1, !tbaa !27
  %34 = load ptr, ptr %6, align 8, !tbaa !13
  %35 = getelementptr inbounds nuw i8, ptr %34, i32 1
  store ptr %35, ptr %6, align 8, !tbaa !13
  store i8 %33, ptr %34, align 1, !tbaa !27
  br label %19, !llvm.loop !28

36:                                               ; preds = %19
  store i32 1, ptr %5, align 4
  br label %37

37:                                               ; preds = %36, %17
  %38 = load i32, ptr %5, align 4
  ret i32 %38
}