; Function Attrs: nounwind uwtable
define internal range(i32 0, 2) i32 @get_faked_bytes(ptr noundef writeonly captures(none) %0, i64 noundef %1, ptr readnone captures(none) %2, ptr readnone captures(none) %3) #0 {
  %5 = load ptr, ptr @fake_rand_bytes, align 8, !tbaa !13
  %6 = tail call i32 @test_ptr(ptr noundef nonnull @.str.9, i32 noundef 42, ptr noundef nonnull @.str.57, ptr noundef %5) #4
  %.not = icmp eq i32 %6, 0
  br i1 %.not, label %.loopexit, label %7

7:                                                ; preds = %4
  %8 = load i64, ptr @fake_rand_size, align 8, !tbaa !11
  %9 = tail call i32 @test_size_t_gt(ptr noundef nonnull @.str.9, i32 noundef 42, ptr noundef nonnull @.str.58, ptr noundef nonnull @.str.59, i64 noundef %8, i64 noundef 0) #4
  %.not4 = icmp eq i32 %9, 0
  br i1 %.not4, label %.loopexit, label %.preheader

.preheader:                                       ; preds = %7
  %.not57 = icmp eq i64 %1, 0
  br i1 %.not57, label %.loopexit, label %.lr.ph

.lr.ph:                                           ; preds = %.preheader
  %fake_rand_bytes_offset.promoted = load i64, ptr @fake_rand_bytes_offset, align 8
  %10 = load i64, ptr @fake_rand_size, align 8, !tbaa !11
  %11 = load ptr, ptr @fake_rand_bytes, align 8, !tbaa !13
  br label %12

12:                                               ; preds = %.lr.ph, %12
  %.in = phi i64 [ %1, %.lr.ph ], [ %14, %12 ]
  %.028 = phi ptr [ %0, %.lr.ph ], [ %18, %12 ]
  %13 = phi i64 [ %fake_rand_bytes_offset.promoted, %.lr.ph ], [ %15, %12 ]
  %14 = add i64 %.in, -1
  %.not6 = icmp ult i64 %13, %10
  %spec.select = select i1 %.not6, i64 %13, i64 0
  %15 = add i64 %spec.select, 1
  %16 = getelementptr inbounds nuw i8, ptr %11, i64 %spec.select
  %17 = load i8, ptr %16, align 1, !tbaa !15
  %18 = getelementptr inbounds nuw i8, ptr %.028, i64 1
  store i8 %17, ptr %.028, align 1, !tbaa !15
  %.not5 = icmp eq i64 %14, 0
  br i1 %.not5, label %..loopexit_crit_edge, label %12, !llvm.loop !16

..loopexit_crit_edge:                             ; preds = %12
  store i64 %15, ptr @fake_rand_bytes_offset, align 8, !tbaa !11
  br label %.loopexit

.loopexit:                                        ; preds = %.preheader, %..loopexit_crit_edge, %4, %7
  %.0 = phi i32 [ 0, %7 ], [ 0, %4 ], [ 1, %..loopexit_crit_edge ], [ 1, %.preheader ]
  ret i32 %.0
}